(lp1
(S'http://www.legislation.qld.gov.au'
S'12345'
tp2
a(S'http://pittstreetpress.com'
S'thrifk'
tp3
a(S'http://www.peddleitnow.com.au'
S'hQge0yg'
tp4
a(S'www.example.com'
S'ezCVNdz'
tp5
a(S'http://www.lkjljhn.qld.gov.au'
S'FPttGGS'
tp6
a(S'www.help.com'
S'wNloELF'
tp7
a(S'www.what.com.au'
S'fnQzY8t'
tp8
a(S'www.helloworld.com.au'
S'VW795fZ'
tp9
a(S'love.me'
S'LGCYzG7'
tp10
a(S'what-the?hwk=qkwh'
S'r3iTh2f'
tp11
a(S'dlfkhwlkfhwerkf'
S'PLOopt2'
tp12
a(S'http://explore-flask.readthedocs.org/en/latest/views.html'
p13
S'mR8VVE7'
p14
tp15
a.